; Function Attrs: mustprogress nounwind uwtable
define internal fastcc void @_ZL24cmFortran_yy_init_bufferP15yy_buffer_stateP8_IO_FILEPv(ptr noundef %0, ptr noundef %1, ptr noundef captures(none) %2) unnamed_addr #1 {
  %4 = tail call ptr @__errno_location() #33
  %5 = load i32, ptr %4, align 4, !tbaa !59
  %.not.i = icmp eq ptr %0, null
  br i1 %.not.i, label %_Z25cmFortran_yy_flush_bufferP15yy_buffer_statePv.exit, label %6

6:                                                ; preds = %3
  %7 = getelementptr inbounds nuw i8, ptr %0, i64 28
  store i32 0, ptr %7, align 4, !tbaa !29
  %8 = getelementptr inbounds nuw i8, ptr %0, i64 8
  %9 = load ptr, ptr %8, align 8, !tbaa !27
  store i8 0, ptr %9, align 1, !tbaa !35
  %10 = load ptr, ptr %8, align 8, !tbaa !27
  %11 = getelementptr inbounds nuw i8, ptr %10, i64 1
  store i8 0, ptr %11, align 1, !tbaa !35
  %12 = load ptr, ptr %8, align 8, !tbaa !27
  %13 = getelementptr inbounds nuw i8, ptr %0, i64 16
  store ptr %12, ptr %13, align 8, !tbaa !31
  %14 = getelementptr inbounds nuw i8, ptr %0, i64 40
  store i32 1, ptr %14, align 8, !tbaa !37
  %15 = getelementptr inbounds nuw i8, ptr %0, i64 56
  store i32 0, ptr %15, align 8, !tbaa !51
  %16 = getelementptr inbounds nuw i8, ptr %2, i64 40
  %17 = load ptr, ptr %16, align 8, !tbaa !20
  %.not15.i = icmp eq ptr %17, null
  br i1 %.not15.i, label %_Z25cmFortran_yy_flush_bufferP15yy_buffer_statePv.exit.thread21, label %19

_Z25cmFortran_yy_flush_bufferP15yy_buffer_statePv.exit.thread21: ; preds = %6
  store ptr %1, ptr %0, align 8, !tbaa !34
  %18 = getelementptr inbounds nuw i8, ptr %0, i64 52
  store i32 1, ptr %18, align 4, !tbaa !55
  br label %.thread

19:                                               ; preds = %6
  %20 = getelementptr inbounds nuw i8, ptr %2, i64 24
  %21 = load i64, ptr %20, align 8, !tbaa !21
  %22 = getelementptr inbounds nuw ptr, ptr %17, i64 %21
  %23 = load ptr, ptr %22, align 8, !tbaa !22
  %24 = icmp eq ptr %0, %23
  br i1 %24, label %25, label %_Z25cmFortran_yy_flush_bufferP15yy_buffer_statePv.exit.thread

25:                                               ; preds = %19
  %26 = getelementptr inbounds nuw i8, ptr %23, i64 28
  %27 = load i32, ptr %26, align 4, !tbaa !29
  %28 = getelementptr inbounds nuw i8, ptr %2, i64 52
  store i32 %27, ptr %28, align 4, !tbaa !30
  %29 = getelementptr inbounds nuw i8, ptr %23, i64 16
  %30 = load ptr, ptr %29, align 8, !tbaa !31
  %31 = getelementptr inbounds nuw i8, ptr %2, i64 64
  store ptr %30, ptr %31, align 8, !tbaa !32
  %32 = getelementptr inbounds nuw i8, ptr %2, i64 128
  store ptr %30, ptr %32, align 8, !tbaa !33
  %33 = load ptr, ptr %23, align 8, !tbaa !34
  %34 = getelementptr inbounds nuw i8, ptr %2, i64 8
  store ptr %33, ptr %34, align 8, !tbaa !17
  %35 = load i8, ptr %30, align 1, !tbaa !35
  %36 = getelementptr inbounds nuw i8, ptr %2, i64 48
  store i8 %35, ptr %36, align 8, !tbaa !36
  br label %_Z25cmFortran_yy_flush_bufferP15yy_buffer_statePv.exit.thread

_Z25cmFortran_yy_flush_bufferP15yy_buffer_statePv.exit.thread: ; preds = %19, %25
  store ptr %1, ptr %0, align 8, !tbaa !34
  %37 = getelementptr inbounds nuw i8, ptr %0, i64 52
  store i32 1, ptr %37, align 4, !tbaa !55
  br label %39

_Z25cmFortran_yy_flush_bufferP15yy_buffer_statePv.exit: ; preds = %3
  %.phi.trans.insert = getelementptr inbounds nuw i8, ptr %2, i64 40
  %.pre = load ptr, ptr %.phi.trans.insert, align 8, !tbaa !20
  store ptr %1, ptr %0, align 8, !tbaa !34
  %38 = getelementptr inbounds nuw i8, ptr %0, i64 52
  store i32 1, ptr %38, align 4, !tbaa !55
  %.not = icmp eq ptr %.pre, null
  br i1 %.not, label %.thread, label %39

39:                                               ; preds = %_Z25cmFortran_yy_flush_bufferP15yy_buffer_statePv.exit.thread, %_Z25cmFortran_yy_flush_bufferP15yy_buffer_statePv.exit
  %40 = phi ptr [ %17, %_Z25cmFortran_yy_flush_bufferP15yy_buffer_statePv.exit.thread ], [ %.pre, %_Z25cmFortran_yy_flush_bufferP15yy_buffer_statePv.exit ]
  %41 = getelementptr inbounds nuw i8, ptr %2, i64 24
  %42 = load i64, ptr %41, align 8, !tbaa !21
  %43 = getelementptr inbounds nuw ptr, ptr %40, i64 %42
  %44 = load ptr, ptr %43, align 8, !tbaa !22
  %.not17 = icmp eq ptr %0, %44
  br i1 %.not17, label %47, label %.thread

.thread:                                          ; preds = %_Z25cmFortran_yy_flush_bufferP15yy_buffer_statePv.exit.thread21, %_Z25cmFortran_yy_flush_bufferP15yy_buffer_statePv.exit, %39
  %45 = getelementptr inbounds nuw i8, ptr %0, i64 44
  store i32 1, ptr %45, align 4, !tbaa !60
  %46 = getelementptr inbounds nuw i8, ptr %0, i64 48
  store i32 0, ptr %46, align 8, !tbaa !61
  br label %47

47:                                               ; preds = %.thread, %39
  %.not18 = icmp eq ptr %1, null
  br i1 %.not18, label %53, label %48

48:                                               ; preds = %47
  %49 = tail call i32 @fileno(ptr noundef nonnull %1) #29
  %50 = tail call i32 @isatty(i32 noundef %49) #29
  %51 = icmp sgt i32 %50, 0
  %52 = zext i1 %51 to i32
  br label %53

53:                                               ; preds = %47, %48
  %54 = phi i32 [ %52, %48 ], [ 0, %47 ]
  %55 = getelementptr inbounds nuw i8, ptr %0, i64 36
  store i32 %54, ptr %55, align 4, !tbaa !62
  store i32 %5, ptr %4, align 4, !tbaa !59
  ret void
}